target datalayout = "e-m:e-p270:32:32-p271:32:32-p272:64:64-i64:64-i128:128-f80:128-n8:16:32:64-S128"
target triple = "x86_64-pc-linux-gnu"

%struct.hwloc_topology = type { i32, i32, i32, ptr, ptr, i64, [20 x i32], [20 x i32], i64, i64, i32, ptr, i64, ptr, i64, [6 x %struct.hwloc_special_level_s], ptr, ptr, %struct.hwloc_binding_hooks, %struct.hwloc_topology_support, %struct.hwloc_infos_s, ptr, ptr, i32, ptr, ptr, i32, i32, ptr, i32, i32, ptr, i32, i32, i32, [5 x float], i32, ptr, ptr, i32, i32, ptr, i32, %struct.hwloc_numanode_attr_s, i32, i32, ptr, i64, i32, ptr, ptr, ptr }
%struct.hwloc_special_level_s = type { i32, ptr, ptr, ptr }
%struct.hwloc_binding_hooks = type { ptr, ptr, ptr, ptr, ptr, ptr, ptr, ptr, ptr, ptr, ptr, ptr, ptr, ptr, ptr, ptr, ptr, ptr, ptr, ptr, ptr, ptr, ptr, ptr }
%struct.hwloc_topology_support = type { ptr, ptr, ptr, ptr }
%struct.hwloc_infos_s = type { ptr, i32, i32 }
%struct.hwloc_numanode_attr_s = type { i64, i32, ptr }
%struct.hwloc_obj = type { i32, ptr, i32, ptr, i64, ptr, i32, i32, ptr, ptr, ptr, i32, ptr, ptr, i32, ptr, ptr, ptr, i32, i32, ptr, i32, ptr, i32, ptr, ptr, ptr, ptr, ptr, %struct.hwloc_infos_s, ptr, i64 }

; Function Attrs: nounwind uwtable
define i32 @hwloc_get_closest_objs(ptr noundef %0, ptr noundef %1, ptr noundef %2, i32 noundef %3) #0 {
  %5 = alloca i32, align 4
  %6 = alloca ptr, align 8
  %7 = alloca ptr, align 8
  %8 = alloca ptr, align 8
  %9 = alloca i32, align 4
  %10 = alloca ptr, align 8
  %11 = alloca ptr, align 8
  %12 = alloca ptr, align 8
  %13 = alloca i32, align 4
  %14 = alloca i32, align 4
  %15 = alloca i32, align 4
  %16 = alloca i32, align 4
  store ptr %0, ptr %6, align 8, !tbaa !3
  store ptr %1, ptr %7, align 8, !tbaa !37
  store ptr %2, ptr %8, align 8, !tbaa !35
  store i32 %3, ptr %9, align 4, !tbaa !8
  call void @llvm.lifetime.start.p0(i64 8, ptr %10) #10
  call void @llvm.lifetime.start.p0(i64 8, ptr %11) #10
  call void @llvm.lifetime.start.p0(i64 8, ptr %12) #10
  call void @llvm.lifetime.start.p0(i64 4, ptr %13) #10
  call void @llvm.lifetime.start.p0(i64 4, ptr %14) #10
  call void @llvm.lifetime.start.p0(i64 4, ptr %15) #10
  store i32 0, ptr %15, align 4, !tbaa !8
  %17 = load ptr, ptr %7, align 8, !tbaa !37
  %18 = getelementptr inbounds nuw %struct.hwloc_obj, ptr %17, i32 0, i32 25
  %19 = load ptr, ptr %18, align 8, !tbaa !57
  %20 = icmp ne ptr %19, null
  br i1 %20, label %22, label %21

21:                                               ; preds = %4
  store i32 0, ptr %5, align 4
  store i32 1, ptr %16, align 4
  br label %123

22:                                               ; preds = %4
  %23 = load ptr, ptr %6, align 8, !tbaa !3
  %24 = getelementptr inbounds nuw %struct.hwloc_topology, ptr %23, i32 0, i32 3
  %25 = load ptr, ptr %24, align 8, !tbaa !52
  %26 = load ptr, ptr %7, align 8, !tbaa !37
  %27 = getelementptr inbounds nuw %struct.hwloc_obj, ptr %26, i32 0, i32 6
  %28 = load i32, ptr %27, align 8, !tbaa !46
  %29 = sext i32 %28 to i64
  %30 = getelementptr inbounds i32, ptr %25, i64 %29
  %31 = load i32, ptr %30, align 4, !tbaa !8
  store i32 %31, ptr %14, align 4, !tbaa !8
  %32 = load ptr, ptr %6, align 8, !tbaa !3
  %33 = getelementptr inbounds nuw %struct.hwloc_topology, ptr %32, i32 0, i32 4
  %34 = load ptr, ptr %33, align 8, !tbaa !34
  %35 = load ptr, ptr %7, align 8, !tbaa !37
  %36 = getelementptr inbounds nuw %struct.hwloc_obj, ptr %35, i32 0, i32 6
  %37 = load i32, ptr %36, align 8, !tbaa !46
  %38 = sext i32 %37 to i64
  %39 = getelementptr inbounds ptr, ptr %34, i64 %38
  %40 = load ptr, ptr %39, align 8, !tbaa !35
  store ptr %40, ptr %12, align 8, !tbaa !35
  %41 = load ptr, ptr %7, align 8, !tbaa !37
  store ptr %41, ptr %10, align 8, !tbaa !37
  br label %42

42:                                               ; preds = %118, %22
  %43 = load i32, ptr %15, align 4, !tbaa !8
  %44 = load i32, ptr %9, align 4, !tbaa !8
  %45 = icmp ult i32 %43, %44
  br i1 %45, label %46, label %120

46:                                               ; preds = %42
  br label %47

47:                                               ; preds = %65, %46
  br label %48

48:                                               ; preds = %47
  %49 = load ptr, ptr %10, align 8, !tbaa !37
  %50 = getelementptr inbounds nuw %struct.hwloc_obj, ptr %49, i32 0, i32 10
  %51 = load ptr, ptr %50, align 8, !tbaa !43
  store ptr %51, ptr %11, align 8, !tbaa !37
  %52 = load ptr, ptr %11, align 8, !tbaa !37
  %53 = icmp ne ptr %52, null
  br i1 %53, label %55, label %54

54:                                               ; preds = %48
  br label %121

55:                                               ; preds = %48
  %56 = load ptr, ptr %10, align 8, !tbaa !37
  %57 = getelementptr inbounds nuw %struct.hwloc_obj, ptr %56, i32 0, i32 25
  %58 = load ptr, ptr %57, align 8, !tbaa !57
  %59 = load ptr, ptr %11, align 8, !tbaa !37
  %60 = getelementptr inbounds nuw %struct.hwloc_obj, ptr %59, i32 0, i32 25
  %61 = load ptr, ptr %60, align 8, !tbaa !57
  %62 = call i32 @hwloc_bitmap_isequal(ptr noundef %58, ptr noundef %61) #11
  %63 = icmp ne i32 %62, 0
  br i1 %63, label %65, label %64

64:                                               ; preds = %55
  br label %67

65:                                               ; preds = %55
  %66 = load ptr, ptr %11, align 8, !tbaa !37
  store ptr %66, ptr %10, align 8, !tbaa !37
  br label %47

67:                                               ; preds = %64
  store i32 0, ptr %13, align 4, !tbaa !8
  br label %68

68:                                               ; preds = %115, %67
  %69 = load i32, ptr %13, align 4, !tbaa !8
  %70 = load i32, ptr %14, align 4, !tbaa !8
  %71 = icmp ult i32 %69, %70
  br i1 %71, label %72, label %118

72:                                               ; preds = %68
  %73 = load ptr, ptr %12, align 8, !tbaa !35
  %74 = load i32, ptr %13, align 4, !tbaa !8
  %75 = zext i32 %74 to i64
  %76 = getelementptr inbounds nuw ptr, ptr %73, i64 %75
  %77 = load ptr, ptr %76, align 8, !tbaa !37
  %78 = getelementptr inbounds nuw %struct.hwloc_obj, ptr %77, i32 0, i32 25
  %79 = load ptr, ptr %78, align 8, !tbaa !57
  %80 = load ptr, ptr %11, align 8, !tbaa !37
  %81 = getelementptr inbounds nuw %struct.hwloc_obj, ptr %80, i32 0, i32 25
  %82 = load ptr, ptr %81, align 8, !tbaa !57
  %83 = call i32 @hwloc_bitmap_isincluded(ptr noundef %79, ptr noundef %82) #11
  %84 = icmp ne i32 %83, 0
  br i1 %84, label %85, label %114

85:                                               ; preds = %72
  %86 = load ptr, ptr %12, align 8, !tbaa !35
  %87 = load i32, ptr %13, align 4, !tbaa !8
  %88 = zext i32 %87 to i64
  %89 = getelementptr inbounds nuw ptr, ptr %86, i64 %88
  %90 = load ptr, ptr %89, align 8, !tbaa !37
  %91 = getelementptr inbounds nuw %struct.hwloc_obj, ptr %90, i32 0, i32 25
  %92 = load ptr, ptr %91, align 8, !tbaa !57
  %93 = load ptr, ptr %10, align 8, !tbaa !37
  %94 = getelementptr inbounds nuw %struct.hwloc_obj, ptr %93, i32 0, i32 25
  %95 = load ptr, ptr %94, align 8, !tbaa !57
  %96 = call i32 @hwloc_bitmap_isincluded(ptr noundef %92, ptr noundef %95) #11
  %97 = icmp ne i32 %96, 0
  br i1 %97, label %114, label %98

98:                                               ; preds = %85
  %99 = load ptr, ptr %12, align 8, !tbaa !35
  %100 = load i32, ptr %13, align 4, !tbaa !8
  %101 = zext i32 %100 to i64
  %102 = getelementptr inbounds nuw ptr, ptr %99, i64 %101
  %103 = load ptr, ptr %102, align 8, !tbaa !37
  %104 = load ptr, ptr %8, align 8, !tbaa !35
  %105 = load i32, ptr %15, align 4, !tbaa !8
  %106 = add i32 %105, 1
  store i32 %106, ptr %15, align 4, !tbaa !8
  %107 = zext i32 %105 to i64
  %108 = getelementptr inbounds nuw ptr, ptr %104, i64 %107
  store ptr %103, ptr %108, align 8, !tbaa !37
  %109 = load i32, ptr %15, align 4, !tbaa !8
  %110 = load i32, ptr %9, align 4, !tbaa !8
  %111 = icmp eq i32 %109, %110
  br i1 %111, label %112, label %113

112:                                              ; preds = %98
  br label %121

113:                                              ; preds = %98
  br label %114

114:                                              ; preds = %113, %85, %72
  br label %115

115:                                              ; preds = %114
  %116 = load i32, ptr %13, align 4, !tbaa !8
  %117 = add i32 %116, 1
  store i32 %117, ptr %13, align 4, !tbaa !8
  br label %68, !llvm.loop !58

118:                                              ; preds = %68
  %119 = load ptr, ptr %11, align 8, !tbaa !37
  store ptr %119, ptr %10, align 8, !tbaa !37
  br label %42, !llvm.loop !59

120:                                              ; preds = %42
  br label %121

121:                                              ; preds = %120, %112, %54
  %122 = load i32, ptr %15, align 4, !tbaa !8
  store i32 %122, ptr %5, align 4
  store i32 1, ptr %16, align 4
  br label %123

123:                                              ; preds = %121, %21
  call void @llvm.lifetime.end.p0(i64 4, ptr %15) #10
  call void @llvm.lifetime.end.p0(i64 4, ptr %14) #10
  call void @llvm.lifetime.end.p0(i64 4, ptr %13) #10
  call void @llvm.lifetime.end.p0(i64 8, ptr %12) #10
  call void @llvm.lifetime.end.p0(i64 8, ptr %11) #10
  call void @llvm.lifetime.end.p0(i64 8, ptr %10) #10
  %124 = load i32, ptr %5, align 4
  ret i32 %124
}