; Function Attrs: nofree nounwind memory(read, argmem: readwrite) uwtable
define i32 @hwloc_get_closest_objs(ptr noundef readonly captures(none) %0, ptr noundef readonly captures(none) %1, ptr noundef writeonly captures(none) %2, i32 noundef %3) local_unnamed_addr #5 {
  %5 = getelementptr inbounds nuw i8, ptr %1, i64 184
  %6 = load ptr, ptr %5, align 8, !tbaa !53
  %.not = icmp eq ptr %6, null
  br i1 %.not, label %.loopexit41, label %7

7:                                                ; preds = %4
  %8 = getelementptr inbounds nuw i8, ptr %0, i64 16
  %9 = load ptr, ptr %8, align 8, !tbaa !43
  %10 = getelementptr inbounds nuw i8, ptr %1, i64 48
  %11 = load i32, ptr %10, align 8, !tbaa !47
  %12 = sext i32 %11 to i64
  %13 = getelementptr inbounds i32, ptr %9, i64 %12
  %14 = load i32, ptr %13, align 4, !tbaa !3
  %.fr59 = freeze i32 %14
  %15 = getelementptr inbounds nuw i8, ptr %0, i64 24
  %16 = load ptr, ptr %15, align 8, !tbaa !32
  %17 = getelementptr inbounds ptr, ptr %16, i64 %12
  %18 = load ptr, ptr %17, align 8, !tbaa !33
  %.not58 = icmp eq i32 %3, 0
  br i1 %.not58, label %.loopexit41, label %.preheader42.lr.ph

.preheader42.lr.ph:                               ; preds = %7
  %.not60 = icmp eq i32 %.fr59, 0
  br i1 %.not60, label %.preheader42, label %.preheader42.us.preheader

.preheader42.us.preheader:                        ; preds = %.preheader42.lr.ph
  %wide.trip.count = zext i32 %.fr59 to i64
  br label %.preheader42.us

.preheader42.us:                                  ; preds = %.preheader42.us.preheader, %..loopexit_crit_edge.us
  %.054.us = phi i32 [ %.3.us, %..loopexit_crit_edge.us ], [ 0, %.preheader42.us.preheader ]
  %.03253.us = phi ptr [ %21, %..loopexit_crit_edge.us ], [ %1, %.preheader42.us.preheader ]
  br label %19

19:                                               ; preds = %22, %.preheader42.us
  %.133.us = phi ptr [ %21, %22 ], [ %.03253.us, %.preheader42.us ]
  %20 = getelementptr inbounds nuw i8, ptr %.133.us, i64 72
  %21 = load ptr, ptr %20, align 8, !tbaa !44
  %.not37.us = icmp eq ptr %21, null
  br i1 %.not37.us, label %.loopexit41, label %22

22:                                               ; preds = %19
  %23 = getelementptr inbounds nuw i8, ptr %.133.us, i64 184
  %24 = load ptr, ptr %23, align 8, !tbaa !53
  %25 = getelementptr inbounds nuw i8, ptr %21, i64 184
  %26 = load ptr, ptr %25, align 8, !tbaa !53
  %27 = tail call i32 @hwloc_bitmap_isequal(ptr noundef %24, ptr noundef %26) #19
  %.not38.us = icmp eq i32 %27, 0
  br i1 %.not38.us, label %.preheader.us, label %19

.preheader.us:                                    ; preds = %22, %40
  %indvars.iv = phi i64 [ %indvars.iv.next, %40 ], [ 0, %22 ]
  %.252.us = phi i32 [ %.3.us, %40 ], [ %.054.us, %22 ]
  %28 = getelementptr inbounds nuw ptr, ptr %18, i64 %indvars.iv
  %29 = load ptr, ptr %28, align 8, !tbaa !35
  %30 = getelementptr inbounds nuw i8, ptr %29, i64 184
  %31 = load ptr, ptr %30, align 8, !tbaa !53
  %32 = tail call i32 @hwloc_bitmap_isincluded(ptr noundef %31, ptr noundef %26) #19
  %.not39.us = icmp eq i32 %32, 0
  br i1 %.not39.us, label %40, label %33

33:                                               ; preds = %.preheader.us
  %34 = tail call i32 @hwloc_bitmap_isincluded(ptr noundef %31, ptr noundef %24) #19
  %.not40.us = icmp eq i32 %34, 0
  br i1 %.not40.us, label %35, label %40

35:                                               ; preds = %33
  %36 = add i32 %.252.us, 1
  %37 = zext i32 %.252.us to i64
  %38 = getelementptr inbounds nuw ptr, ptr %2, i64 %37
  store ptr %29, ptr %38, align 8, !tbaa !35
  %39 = icmp eq i32 %36, %3
  br i1 %39, label %.loopexit41, label %40

40:                                               ; preds = %35, %33, %.preheader.us
  %.3.us = phi i32 [ %.252.us, %33 ], [ %36, %35 ], [ %.252.us, %.preheader.us ]
  %indvars.iv.next = add nuw nsw i64 %indvars.iv, 1
  %exitcond.not = icmp eq i64 %indvars.iv.next, %wide.trip.count
  br i1 %exitcond.not, label %..loopexit_crit_edge.us, label %.preheader.us, !llvm.loop !54

..loopexit_crit_edge.us:                          ; preds = %40
  %41 = icmp ult i32 %.3.us, %3
  br i1 %41, label %.preheader42.us, label %.loopexit41, !llvm.loop !55

.preheader42:                                     ; preds = %.preheader42.lr.ph, %.preheader42
  %.133 = phi ptr [ %43, %.preheader42 ], [ %1, %.preheader42.lr.ph ]
  %42 = getelementptr inbounds nuw i8, ptr %.133, i64 72
  %43 = load ptr, ptr %42, align 8, !tbaa !44
  %.not37 = icmp eq ptr %43, null
  br i1 %.not37, label %.loopexit41, label %.preheader42

.loopexit41:                                      ; preds = %..loopexit_crit_edge.us, %19, %35, %.preheader42, %7, %4
  %.030 = phi i32 [ 0, %4 ], [ 0, %7 ], [ 0, %.preheader42 ], [ %3, %35 ], [ %.054.us, %19 ], [ %.3.us, %..loopexit_crit_edge.us ]
  ret i32 %.030
}